target datalayout = "e-m:e-p270:32:32-p271:32:32-p272:64:64-i64:64-i128:128-f80:128-n8:16:32:64-S128"
target triple = "x86_64-pc-linux-gnu"

%struct.lv_ll_t = type { i32, ptr, ptr }
%struct._lv_display_t = type { i32, i32, i32, i32, i32, i32, i32, ptr, ptr, ptr, ptr, ptr, i32, i32, i8, i32, i16, i32, [32 x %struct.lv_area_t], [32 x i8], i32, i32, %struct.lv_ll_t, %struct._lv_draw_buf_t, %struct._lv_draw_buf_t, ptr, ptr, ptr, ptr, ptr, ptr, ptr, ptr, ptr, ptr, i32, i8, ptr, ptr, %struct.lv_event_list_t, i8, ptr, ptr, i32, %struct.lv_area_t }
%struct._lv_draw_buf_t = type { %struct.lv_image_header_t, i32, ptr, ptr, ptr }
%struct.lv_image_header_t = type <{ i64, i32 }>
%struct.lv_event_list_t = type { %struct._lv_array_t, i8 }
%struct._lv_array_t = type { ptr, i32, i32, i32, i8 }
%struct.lv_area_t = type { i32, i32, i32, i32 }

; Function Attrs: nounwind uwtable
define internal void @scr_load_internal(ptr noundef %0) #0 {
  %2 = alloca ptr, align 8
  %3 = alloca ptr, align 8
  %4 = alloca i32, align 4
  %5 = alloca ptr, align 8
  store ptr %0, ptr %2, align 8, !tbaa !7
  br label %6

6:                                                ; preds = %1
  %7 = load ptr, ptr %2, align 8, !tbaa !7
  %8 = icmp ne ptr %7, null
  br i1 %8, label %13, label %9

9:                                                ; preds = %6
  br label %10

10:                                               ; preds = %9
  br label %11

11:                                               ; preds = %10
  br label %12

12:                                               ; preds = %11, %12
  br label %12

13:                                               ; preds = %6
  br label %14

14:                                               ; preds = %13
  %15 = load ptr, ptr %2, align 8, !tbaa !7
  %16 = icmp eq ptr %15, null
  br i1 %16, label %17, label %18

17:                                               ; preds = %14
  br label %52

18:                                               ; preds = %14
  call void @llvm.lifetime.start.p0(i64 8, ptr %3) #5
  %19 = load ptr, ptr %2, align 8, !tbaa !7
  %20 = call ptr @lv_obj_get_display(ptr noundef %19)
  store ptr %20, ptr %3, align 8, !tbaa !7
  %21 = load ptr, ptr %3, align 8, !tbaa !7
  %22 = icmp ne ptr %21, null
  br i1 %22, label %24, label %23

23:                                               ; preds = %18
  store i32 1, ptr %4, align 4
  br label %50

24:                                               ; preds = %18
  call void @llvm.lifetime.start.p0(i64 8, ptr %5) #5
  %25 = load ptr, ptr %3, align 8, !tbaa !7
  %26 = getelementptr inbounds nuw %struct._lv_display_t, ptr %25, i32 0, i32 31
  %27 = load ptr, ptr %26, align 8, !tbaa !48
  store ptr %27, ptr %5, align 8, !tbaa !7
  %28 = load ptr, ptr %5, align 8, !tbaa !7
  %29 = icmp ne ptr %28, null
  br i1 %29, label %30, label %33

30:                                               ; preds = %24
  %31 = load ptr, ptr %5, align 8, !tbaa !7
  %32 = call i32 @lv_obj_send_event(ptr noundef %31, i32 noundef 45, ptr noundef null)
  br label %33

33:                                               ; preds = %30, %24
  %34 = load ptr, ptr %2, align 8, !tbaa !7
  %35 = call i32 @lv_obj_send_event(ptr noundef %34, i32 noundef 46, ptr noundef null)
  %36 = load ptr, ptr %2, align 8, !tbaa !7
  %37 = load ptr, ptr %3, align 8, !tbaa !7
  %38 = getelementptr inbounds nuw %struct._lv_display_t, ptr %37, i32 0, i32 31
  store ptr %36, ptr %38, align 8, !tbaa !48
  %39 = load ptr, ptr %3, align 8, !tbaa !7
  %40 = getelementptr inbounds nuw %struct._lv_display_t, ptr %39, i32 0, i32 34
  store ptr null, ptr %40, align 8, !tbaa !77
  %41 = load ptr, ptr %2, align 8, !tbaa !7
  %42 = call i32 @lv_obj_send_event(ptr noundef %41, i32 noundef 47, ptr noundef null)
  %43 = load ptr, ptr %5, align 8, !tbaa !7
  %44 = icmp ne ptr %43, null
  br i1 %44, label %45, label %48

45:                                               ; preds = %33
  %46 = load ptr, ptr %5, align 8, !tbaa !7
  %47 = call i32 @lv_obj_send_event(ptr noundef %46, i32 noundef 48, ptr noundef null)
  br label %48

48:                                               ; preds = %45, %33
  %49 = load ptr, ptr %2, align 8, !tbaa !7
  call void @lv_obj_invalidate(ptr noundef %49)
  call void @llvm.lifetime.end.p0(i64 8, ptr %5) #5
  store i32 0, ptr %4, align 4
  br label %50

50:                                               ; preds = %48, %23
  call void @llvm.lifetime.end.p0(i64 8, ptr %3) #5
  %51 = load i32, ptr %4, align 4
  switch i32 %51, label %53 [
    i32 0, label %52
    i32 1, label %52
  ]

52:                                               ; preds = %17, %50, %50
  ret void

53:                                               ; preds = %50
  unreachable
}