; Function Attrs: nounwind uwtable
define internal fastcc void @scr_load_internal(ptr noundef %0) unnamed_addr #0 {
  %.not = icmp eq ptr %0, null
  br i1 %.not, label %.preheader, label %2

.preheader:                                       ; preds = %1, %.preheader
  br label %.preheader

2:                                                ; preds = %1
  %3 = tail call ptr @lv_obj_get_display(ptr noundef nonnull %0) #13
  %.not17 = icmp eq ptr %3, null
  br i1 %.not17, label %17, label %4

4:                                                ; preds = %2
  %5 = getelementptr inbounds nuw i8, ptr %3, i64 800
  %6 = load ptr, ptr %5, align 8, !tbaa !45
  %.not18 = icmp eq ptr %6, null
  br i1 %.not18, label %.critedge, label %7

7:                                                ; preds = %4
  %8 = tail call i32 @lv_obj_send_event(ptr noundef nonnull %6, i32 noundef 45, ptr noundef null) #13
  %9 = tail call i32 @lv_obj_send_event(ptr noundef nonnull %0, i32 noundef 46, ptr noundef null) #13
  store ptr %0, ptr %5, align 8, !tbaa !45
  %10 = getelementptr inbounds nuw i8, ptr %3, i64 824
  store ptr null, ptr %10, align 8, !tbaa !72
  %11 = tail call i32 @lv_obj_send_event(ptr noundef nonnull %0, i32 noundef 47, ptr noundef null) #13
  %12 = tail call i32 @lv_obj_send_event(ptr noundef nonnull %6, i32 noundef 48, ptr noundef null) #13
  br label %16

.critedge:                                        ; preds = %4
  %13 = tail call i32 @lv_obj_send_event(ptr noundef nonnull %0, i32 noundef 46, ptr noundef null) #13
  store ptr %0, ptr %5, align 8, !tbaa !45
  %14 = getelementptr inbounds nuw i8, ptr %3, i64 824
  store ptr null, ptr %14, align 8, !tbaa !72
  %15 = tail call i32 @lv_obj_send_event(ptr noundef nonnull %0, i32 noundef 47, ptr noundef null) #13
  br label %16

16:                                               ; preds = %.critedge, %7
  tail call void @lv_obj_invalidate(ptr noundef nonnull %0) #13
  br label %17

17:                                               ; preds = %16, %2
  ret void
}